; Function Attrs: mustprogress sspstrong uwtable
define void @_ZN4FLAC8Metadata13VorbisComment5EntryC2EPKcj(ptr nocapture noundef nonnull align 8 dereferenceable(60) %this, ptr noundef %field, i32 noundef %field_length) unnamed_addr #0 align 2 {
entry:
  store ptr getelementptr inbounds ({ [5 x ptr] }, ptr @_ZTVN4FLAC8Metadata13VorbisComment5EntryE, i64 0, i32 0, i64 2), ptr %this, align 8
  %is_valid_ = getelementptr inbounds i8, ptr %this, i64 8
  %entry_ = getelementptr inbounds i8, ptr %this, i64 16
  %field_value_ = getelementptr inbounds i8, ptr %this, i64 48
  %field_value_length_ = getelementptr inbounds i8, ptr %this, i64 56
  store i64 0, ptr %entry_, align 8
  store i8 1, ptr %is_valid_, align 8
  %entry3.i = getelementptr inbounds i8, ptr %this, i64 24
  store ptr null, ptr %field_value_, align 8
  store i32 0, ptr %field_value_length_, align 8
  tail call void @llvm.memset.p0.i64(ptr noundef nonnull align 8 dereferenceable(20) %entry3.i, i8 0, i64 20, i1 false)
  %call.i.i = tail call i32 @FLAC__format_vorbiscomment_entry_is_legal(ptr noundef %field, i32 noundef %field_length)
  %tobool.not.i.i = icmp eq i32 %call.i.i, 0
  br i1 %tobool.not.i.i, label %if.then.i.i, label %if.end.i.i

if.then.i.i:                                      ; preds = %entry
  store i8 0, ptr %is_valid_, align 8
  br label %_ZN4FLAC8Metadata13VorbisComment5Entry9constructEPKcj.exit

if.end.i.i:                                       ; preds = %entry
  %0 = load ptr, ptr %entry3.i, align 8
  %cmp.not.i.i.i = icmp eq ptr %0, null
  br i1 %cmp.not.i.i.i, label %_ZN4FLAC8Metadata13VorbisComment5Entry11clear_entryEv.exit.i.i, label %if.then.i.i.i

if.then.i.i.i:                                    ; preds = %if.end.i.i
  tail call void @free(ptr noundef nonnull %0) #20
  store i32 0, ptr %entry_, align 8
  br label %_ZN4FLAC8Metadata13VorbisComment5Entry11clear_entryEv.exit.i.i

_ZN4FLAC8Metadata13VorbisComment5Entry11clear_entryEv.exit.i.i: ; preds = %if.then.i.i.i, %if.end.i.i
  %conv.i.i = zext i32 %field_length to i64
  %add.i.i.i = add nuw nsw i64 %conv.i.i, 1
  %call.i.i.i.i = tail call noalias noundef ptr @malloc(i64 noundef %add.i.i.i) #23
  store ptr %call.i.i.i.i, ptr %entry3.i, align 8
  %cmp.i.i = icmp eq ptr %call.i.i.i.i, null
  br i1 %cmp.i.i, label %if.then4.i.i, label %_ZN4FLAC8Metadata13VorbisComment5Entry9set_fieldEPKcj.exit.i

if.then4.i.i:                                     ; preds = %_ZN4FLAC8Metadata13VorbisComment5Entry11clear_entryEv.exit.i.i
  store i8 0, ptr %is_valid_, align 8
  br label %_ZN4FLAC8Metadata13VorbisComment5Entry9constructEPKcj.exit

_ZN4FLAC8Metadata13VorbisComment5Entry9set_fieldEPKcj.exit.i: ; preds = %_ZN4FLAC8Metadata13VorbisComment5Entry11clear_entryEv.exit.i.i
  store i32 %field_length, ptr %entry_, align 8
  tail call void @llvm.memcpy.p0.p0.i64(ptr nonnull align 1 %call.i.i.i.i, ptr align 1 %field, i64 %conv.i.i, i1 false)
  %arrayidx.i.i = getelementptr inbounds i8, ptr %call.i.i.i.i, i64 %conv.i.i
  store i8 0, ptr %arrayidx.i.i, align 1
  tail call void @_ZN4FLAC8Metadata13VorbisComment5Entry11parse_fieldEv(ptr noundef nonnull align 8 dereferenceable(60) %this)
  %.pre.i.i = load i8, ptr %is_valid_, align 8
  %1 = and i8 %.pre.i.i, 1
  %.not.i = icmp eq i8 %1, 0
  br i1 %.not.i, label %_ZN4FLAC8Metadata13VorbisComment5Entry9constructEPKcj.exit, label %if.then.i

if.then.i:                                        ; preds = %_ZN4FLAC8Metadata13VorbisComment5Entry9set_fieldEPKcj.exit.i
  tail call void @_ZN4FLAC8Metadata13VorbisComment5Entry11parse_fieldEv(ptr noundef nonnull align 8 dereferenceable(60) %this)
  br label %_ZN4FLAC8Metadata13VorbisComment5Entry9constructEPKcj.exit

_ZN4FLAC8Metadata13VorbisComment5Entry9constructEPKcj.exit: ; preds = %if.then.i.i, %if.then4.i.i, %_ZN4FLAC8Metadata13VorbisComment5Entry9set_fieldEPKcj.exit.i, %if.then.i
  ret void
}